target datalayout = "e-m:e-p270:32:32-p271:32:32-p272:64:64-i64:64-i128:128-f80:128-n8:16:32:64-S128"
target triple = "x86_64-pc-linux-gnu"

%struct.btCollisionObjectWrapper = type { ptr, ptr, ptr, ptr, ptr, i32, i32 }
%class.btManifoldResult = type <{ %"struct.btDiscreteCollisionDetectorInterface::Result", ptr, ptr, ptr, i32, i32, i32, i32, float, [4 x i8] }>
%"struct.btDiscreteCollisionDetectorInterface::Result" = type { ptr }
%struct.btBroadphasePair = type { ptr, ptr, ptr, %union.anon.4 }
%union.anon.4 = type { ptr }
%struct.btBroadphaseProxy = type <{ ptr, i32, i32, i32, %class.btVector3, %class.btVector3, [4 x i8] }>
%class.btVector3 = type { [4 x float] }
%struct.btDispatcherInfo = type <{ float, i32, i32, float, i8, [7 x i8], ptr, i8, i8, i8, i8, float, i8, [3 x i8], float, i8, [7 x i8] }>
%class.btCollisionObject = type <{ ptr, %class.btTransform, %class.btTransform, %class.btVector3, %class.btVector3, %class.btVector3, i32, float, ptr, ptr, ptr, ptr, i32, i32, i32, i32, i32, float, float, float, float, float, float, float, i32, [4 x i8], ptr, i32, i32, i32, float, float, float, i32, [4 x i8], %class.btAlignedObjectArray.0, i32, %class.btVector3, [4 x i8] }>
%class.btTransform = type { %class.btMatrix3x3, %class.btVector3 }
%class.btMatrix3x3 = type { [3 x %class.btVector3] }
%class.btAlignedObjectArray.0 = type <{ [4 x i8], i32, i32, [4 x i8], ptr, i8, [7 x i8] }>

; Function Attrs: mustprogress nounwind uwtable
define linkonce_odr dso_local void @_ZN36btDiscreteCollisionDetectorInterface6ResultD2Ev(ptr noundef nonnull align 8 dereferenceable(8) %0) unnamed_addr #1 comdat align 2 {
  %2 = alloca ptr, align 8
  store ptr %0, ptr %2, align 8, !tbaa !135
  ret void
}

; Function Attrs: mustprogress nounwind uwtable
define linkonce_odr dso_local void @_ZN24btCollisionObjectWrapperC2EPKS_PK16btCollisionShapePK17btCollisionObjectRK11btTransformii(ptr noundef nonnull align 8 dereferenceable(48) %0, ptr noundef %1, ptr noundef %2, ptr noundef %3, ptr noundef nonnull align 4 dereferenceable(64) %4, i32 noundef %5, i32 noundef %6) unnamed_addr #1 comdat align 2 {
  %8 = alloca ptr, align 8
  %9 = alloca ptr, align 8
  %10 = alloca ptr, align 8
  %11 = alloca ptr, align 8
  %12 = alloca ptr, align 8
  %13 = alloca i32, align 4
  %14 = alloca i32, align 4
  store ptr %0, ptr %8, align 8, !tbaa !99
  store ptr %1, ptr %9, align 8, !tbaa !99
  store ptr %2, ptr %10, align 8, !tbaa !112
  store ptr %3, ptr %11, align 8, !tbaa !51
  store ptr %4, ptr %12, align 8, !tbaa !129
  store i32 %5, ptr %13, align 4, !tbaa !9
  store i32 %6, ptr %14, align 4, !tbaa !9
  %15 = load ptr, ptr %8, align 8
  %16 = getelementptr inbounds nuw %struct.btCollisionObjectWrapper, ptr %15, i32 0, i32 0
  %17 = load ptr, ptr %9, align 8, !tbaa !99
  store ptr %17, ptr %16, align 8, !tbaa !130
  %18 = getelementptr inbounds nuw %struct.btCollisionObjectWrapper, ptr %15, i32 0, i32 1
  %19 = load ptr, ptr %10, align 8, !tbaa !112
  store ptr %19, ptr %18, align 8, !tbaa !109
  %20 = getelementptr inbounds nuw %struct.btCollisionObjectWrapper, ptr %15, i32 0, i32 2
  %21 = load ptr, ptr %11, align 8, !tbaa !51
  store ptr %21, ptr %20, align 8, !tbaa !131
  %22 = getelementptr inbounds nuw %struct.btCollisionObjectWrapper, ptr %15, i32 0, i32 3
  %23 = load ptr, ptr %12, align 8, !tbaa !129
  store ptr %23, ptr %22, align 8, !tbaa !129
  %24 = getelementptr inbounds nuw %struct.btCollisionObjectWrapper, ptr %15, i32 0, i32 4
  store ptr null, ptr %24, align 8, !tbaa !132
  %25 = getelementptr inbounds nuw %struct.btCollisionObjectWrapper, ptr %15, i32 0, i32 5
  %26 = load i32, ptr %13, align 4, !tbaa !9
  store i32 %26, ptr %25, align 8, !tbaa !133
  %27 = getelementptr inbounds nuw %struct.btCollisionObjectWrapper, ptr %15, i32 0, i32 6
  %28 = load i32, ptr %14, align 4, !tbaa !9
  store i32 %28, ptr %27, align 4, !tbaa !134
  ret void
}

; Function Attrs: mustprogress nounwind uwtable
define linkonce_odr dso_local noundef nonnull align 4 dereferenceable(64) ptr @_ZN17btCollisionObject17getWorldTransformEv(ptr noundef nonnull align 8 dereferenceable(372) %0) #1 comdat align 2 {
  %2 = alloca ptr, align 8
  store ptr %0, ptr %2, align 8, !tbaa !51
  %3 = load ptr, ptr %2, align 8
  %4 = getelementptr inbounds nuw %class.btCollisionObject, ptr %3, i32 0, i32 1
  ret ptr %4
}

; Function Attrs: inlinehint mustprogress nounwind uwtable
define linkonce_odr dso_local noundef ptr @_ZN17btCollisionObject17getCollisionShapeEv(ptr noundef nonnull align 8 dereferenceable(372) %0) #3 comdat align 2 {
  %2 = alloca ptr, align 8
  store ptr %0, ptr %2, align 8, !tbaa !51
  %3 = load ptr, ptr %2, align 8
  %4 = getelementptr inbounds nuw %class.btCollisionObject, ptr %3, i32 0, i32 9
  %5 = load ptr, ptr %4, align 8, !tbaa !68
  ret ptr %5
}

; Function Attrs: mustprogress uwtable
define dso_local void @_ZN21btCollisionDispatcher19defaultNearCallbackER16btBroadphasePairRS_RK16btDispatcherInfo(ptr noundef nonnull align 8 dereferenceable(32) %0, ptr noundef nonnull align 8 dereferenceable(20816) %1, ptr noundef nonnull align 8 dereferenceable(49) %2) #2 align 2 personality ptr @__gxx_personality_v0 {
  %4 = alloca ptr, align 8
  %5 = alloca ptr, align 8
  %6 = alloca ptr, align 8
  %7 = alloca ptr, align 8
  %8 = alloca ptr, align 8
  %9 = alloca %struct.btCollisionObjectWrapper, align 8
  %10 = alloca %struct.btCollisionObjectWrapper, align 8
  %11 = alloca %class.btManifoldResult, align 8
  %12 = alloca ptr, align 8
  %13 = alloca i32, align 4
  %14 = alloca float, align 4
  store ptr %0, ptr %4, align 8, !tbaa !40
  store ptr %1, ptr %5, align 8, !tbaa !12
  store ptr %2, ptr %6, align 8, !tbaa !42
  call void @llvm.lifetime.start.p0(i64 8, ptr %7) #11
  %15 = load ptr, ptr %4, align 8, !tbaa !40
  %16 = getelementptr inbounds nuw %struct.btBroadphasePair, ptr %15, i32 0, i32 0
  %17 = load ptr, ptr %16, align 8, !tbaa !44
  %18 = getelementptr inbounds nuw %struct.btBroadphaseProxy, ptr %17, i32 0, i32 0
  %19 = load ptr, ptr %18, align 8, !tbaa !48
  store ptr %19, ptr %7, align 8, !tbaa !51
  call void @llvm.lifetime.start.p0(i64 8, ptr %8) #11
  %20 = load ptr, ptr %4, align 8, !tbaa !40
  %21 = getelementptr inbounds nuw %struct.btBroadphasePair, ptr %20, i32 0, i32 1
  %22 = load ptr, ptr %21, align 8, !tbaa !53
  %23 = getelementptr inbounds nuw %struct.btBroadphaseProxy, ptr %22, i32 0, i32 0
  %24 = load ptr, ptr %23, align 8, !tbaa !48
  store ptr %24, ptr %8, align 8, !tbaa !51
  %25 = load ptr, ptr %5, align 8, !tbaa !12
  %26 = load ptr, ptr %7, align 8, !tbaa !51
  %27 = load ptr, ptr %8, align 8, !tbaa !51
  %28 = load ptr, ptr %25, align 8, !tbaa !16
  %29 = getelementptr inbounds ptr, ptr %28, i64 6
  %30 = load ptr, ptr %29, align 8
  %31 = call noundef zeroext i1 %30(ptr noundef nonnull align 8 dereferenceable(20816) %25, ptr noundef %26, ptr noundef %27)
  br i1 %31, label %32, label %107

32:                                               ; preds = %3
  call void @llvm.lifetime.start.p0(i64 48, ptr %9) #11
  %33 = load ptr, ptr %7, align 8, !tbaa !51
  %34 = call noundef ptr @_ZN17btCollisionObject17getCollisionShapeEv(ptr noundef nonnull align 8 dereferenceable(372) %33)
  %35 = load ptr, ptr %7, align 8, !tbaa !51
  %36 = load ptr, ptr %7, align 8, !tbaa !51
  %37 = call noundef nonnull align 4 dereferenceable(64) ptr @_ZN17btCollisionObject17getWorldTransformEv(ptr noundef nonnull align 8 dereferenceable(372) %36)
  call void @_ZN24btCollisionObjectWrapperC2EPKS_PK16btCollisionShapePK17btCollisionObjectRK11btTransformii(ptr noundef nonnull align 8 dereferenceable(48) %9, ptr noundef null, ptr noundef %34, ptr noundef %35, ptr noundef nonnull align 4 dereferenceable(64) %37, i32 noundef -1, i32 noundef -1)
  call void @llvm.lifetime.start.p0(i64 48, ptr %10) #11
  %38 = load ptr, ptr %8, align 8, !tbaa !51
  %39 = call noundef ptr @_ZN17btCollisionObject17getCollisionShapeEv(ptr noundef nonnull align 8 dereferenceable(372) %38)
  %40 = load ptr, ptr %8, align 8, !tbaa !51
  %41 = load ptr, ptr %8, align 8, !tbaa !51
  %42 = call noundef nonnull align 4 dereferenceable(64) ptr @_ZN17btCollisionObject17getWorldTransformEv(ptr noundef nonnull align 8 dereferenceable(372) %41)
  call void @_ZN24btCollisionObjectWrapperC2EPKS_PK16btCollisionShapePK17btCollisionObjectRK11btTransformii(ptr noundef nonnull align 8 dereferenceable(48) %10, ptr noundef null, ptr noundef %39, ptr noundef %40, ptr noundef nonnull align 4 dereferenceable(64) %42, i32 noundef -1, i32 noundef -1)
  %43 = load ptr, ptr %4, align 8, !tbaa !40
  %44 = getelementptr inbounds nuw %struct.btBroadphasePair, ptr %43, i32 0, i32 2
  %45 = load ptr, ptr %44, align 8, !tbaa !54
  %46 = icmp ne ptr %45, null
  br i1 %46, label %55, label %47

47:                                               ; preds = %32
  %48 = load ptr, ptr %5, align 8, !tbaa !12
  %49 = load ptr, ptr %48, align 8, !tbaa !16
  %50 = getelementptr inbounds ptr, ptr %49, i64 2
  %51 = load ptr, ptr %50, align 8
  %52 = call noundef ptr %51(ptr noundef nonnull align 8 dereferenceable(20816) %48, ptr noundef %9, ptr noundef %10, ptr noundef null, i32 noundef 1)
  %53 = load ptr, ptr %4, align 8, !tbaa !40
  %54 = getelementptr inbounds nuw %struct.btBroadphasePair, ptr %53, i32 0, i32 2
  store ptr %52, ptr %54, align 8, !tbaa !54
  br label %55

55:                                               ; preds = %47, %32
  %56 = load ptr, ptr %4, align 8, !tbaa !40
  %57 = getelementptr inbounds nuw %struct.btBroadphasePair, ptr %56, i32 0, i32 2
  %58 = load ptr, ptr %57, align 8, !tbaa !54
  %59 = icmp ne ptr %58, null
  br i1 %59, label %60, label %106

60:                                               ; preds = %55
  call void @llvm.lifetime.start.p0(i64 56, ptr %11) #11
  call void @_ZN16btManifoldResultC1EPK24btCollisionObjectWrapperS2_(ptr noundef nonnull align 8 dereferenceable(52) %11, ptr noundef %9, ptr noundef %10)
  %61 = load ptr, ptr %6, align 8, !tbaa !42
  %62 = getelementptr inbounds nuw %struct.btDispatcherInfo, ptr %61, i32 0, i32 2
  %63 = load i32, ptr %62, align 8, !tbaa !55
  %64 = icmp eq i32 %63, 1
  br i1 %64, label %65, label %78

65:                                               ; preds = %60
  %66 = load ptr, ptr %4, align 8, !tbaa !40
  %67 = getelementptr inbounds nuw %struct.btBroadphasePair, ptr %66, i32 0, i32 2
  %68 = load ptr, ptr %67, align 8, !tbaa !54
  %69 = load ptr, ptr %6, align 8, !tbaa !42
  %70 = load ptr, ptr %68, align 8, !tbaa !16
  %71 = getelementptr inbounds ptr, ptr %70, i64 2
  %72 = load ptr, ptr %71, align 8
  invoke void %72(ptr noundef nonnull align 8 dereferenceable(16) %68, ptr noundef %9, ptr noundef %10, ptr noundef nonnull align 8 dereferenceable(49) %69, ptr noundef %11)
          to label %73 unwind label %74

73:                                               ; preds = %65
  br label %104

74:                                               ; preds = %65
  %75 = landingpad { ptr, i32 }
          cleanup
  %76 = extractvalue { ptr, i32 } %75, 0
  store ptr %76, ptr %12, align 8
  %77 = extractvalue { ptr, i32 } %75, 1
  store i32 %77, ptr %13, align 4
  br label %105

78:                                               ; preds = %60
  call void @llvm.lifetime.start.p0(i64 4, ptr %14) #11
  %79 = load ptr, ptr %4, align 8, !tbaa !40
  %80 = getelementptr inbounds nuw %struct.btBroadphasePair, ptr %79, i32 0, i32 2
  %81 = load ptr, ptr %80, align 8, !tbaa !54
  %82 = load ptr, ptr %7, align 8, !tbaa !51
  %83 = load ptr, ptr %8, align 8, !tbaa !51
  %84 = load ptr, ptr %6, align 8, !tbaa !42
  %85 = load ptr, ptr %81, align 8, !tbaa !16
  %86 = getelementptr inbounds ptr, ptr %85, i64 3
  %87 = load ptr, ptr %86, align 8
  %88 = invoke noundef float %87(ptr noundef nonnull align 8 dereferenceable(16) %81, ptr noundef %82, ptr noundef %83, ptr noundef nonnull align 8 dereferenceable(49) %84, ptr noundef %11)
          to label %89 unwind label %99

89:                                               ; preds = %78
  store float %88, ptr %14, align 4, !tbaa !59
  %90 = load ptr, ptr %6, align 8, !tbaa !42
  %91 = getelementptr inbounds nuw %struct.btDispatcherInfo, ptr %90, i32 0, i32 3
  %92 = load float, ptr %91, align 4, !tbaa !60
  %93 = load float, ptr %14, align 4, !tbaa !59
  %94 = fcmp ogt float %92, %93
  br i1 %94, label %95, label %103

95:                                               ; preds = %89
  %96 = load float, ptr %14, align 4, !tbaa !59
  %97 = load ptr, ptr %6, align 8, !tbaa !42
  %98 = getelementptr inbounds nuw %struct.btDispatcherInfo, ptr %97, i32 0, i32 3
  store float %96, ptr %98, align 4, !tbaa !60
  br label %103

99:                                               ; preds = %78
  %100 = landingpad { ptr, i32 }
          cleanup
  %101 = extractvalue { ptr, i32 } %100, 0
  store ptr %101, ptr %12, align 8
  %102 = extractvalue { ptr, i32 } %100, 1
  store i32 %102, ptr %13, align 4
  call void @llvm.lifetime.end.p0(i64 4, ptr %14) #11
  br label %105

103:                                              ; preds = %95, %89
  call void @llvm.lifetime.end.p0(i64 4, ptr %14) #11
  br label %104

104:                                              ; preds = %103, %73
  call void @_ZN36btDiscreteCollisionDetectorInterface6ResultD2Ev(ptr noundef nonnull align 8 dereferenceable(52) %11) #11
  call void @llvm.lifetime.end.p0(i64 56, ptr %11) #11
  br label %106

105:                                              ; preds = %99, %74
  call void @_ZN36btDiscreteCollisionDetectorInterface6ResultD2Ev(ptr noundef nonnull align 8 dereferenceable(52) %11) #11
  call void @llvm.lifetime.end.p0(i64 56, ptr %11) #11
  call void @llvm.lifetime.end.p0(i64 48, ptr %10) #11
  call void @llvm.lifetime.end.p0(i64 48, ptr %9) #11
  call void @llvm.lifetime.end.p0(i64 8, ptr %8) #11
  call void @llvm.lifetime.end.p0(i64 8, ptr %7) #11
  br label %108

106:                                              ; preds = %104, %55
  call void @llvm.lifetime.end.p0(i64 48, ptr %10) #11
  call void @llvm.lifetime.end.p0(i64 48, ptr %9) #11
  br label %107

107:                                              ; preds = %106, %3
  call void @llvm.lifetime.end.p0(i64 8, ptr %8) #11
  call void @llvm.lifetime.end.p0(i64 8, ptr %7) #11
  ret void

108:                                              ; preds = %105
  %109 = load ptr, ptr %12, align 8
  %110 = load i32, ptr %13, align 4
  %111 = insertvalue { ptr, i32 } poison, ptr %109, 0
  %112 = insertvalue { ptr, i32 } %111, i32 %110, 1
  resume { ptr, i32 } %112
}