; Function Attrs: mustprogress uwtable
define dso_local void @_ZN21btCollisionDispatcher19defaultNearCallbackER16btBroadphasePairRS_RK16btDispatcherInfo(ptr noundef nonnull align 8 captures(none) dereferenceable(32) %0, ptr noundef nonnull align 8 dereferenceable(20816) %1, ptr noundef nonnull align 8 dereferenceable(49) %2) #0 align 2 personality ptr @__gxx_personality_v0 {
  %4 = alloca %struct.btCollisionObjectWrapper, align 8
  %5 = alloca %struct.btCollisionObjectWrapper, align 8
  %6 = alloca %class.btManifoldResult, align 8
  %7 = load ptr, ptr %0, align 8, !tbaa !32
  %8 = load ptr, ptr %7, align 8, !tbaa !36
  %9 = getelementptr inbounds nuw i8, ptr %0, i64 8
  %10 = load ptr, ptr %9, align 8, !tbaa !39
  %11 = load ptr, ptr %10, align 8, !tbaa !36
  %12 = load ptr, ptr %1, align 8, !tbaa !4
  %13 = getelementptr inbounds nuw i8, ptr %12, i64 48
  %14 = load ptr, ptr %13, align 8
  %15 = tail call noundef zeroext i1 %14(ptr noundef nonnull align 8 dereferenceable(20816) %1, ptr noundef %8, ptr noundef %11)
  br i1 %15, label %16, label %60

16:                                               ; preds = %3
  call void @llvm.lifetime.start.p0(i64 48, ptr nonnull %4) #11
  %17 = getelementptr inbounds nuw i8, ptr %8, i64 200
  %18 = load ptr, ptr %17, align 8, !tbaa !40
  %19 = getelementptr inbounds nuw i8, ptr %8, i64 8
  store ptr null, ptr %4, align 8, !tbaa !49
  %20 = getelementptr inbounds nuw i8, ptr %4, i64 8
  store ptr %18, ptr %20, align 8, !tbaa !54
  %21 = getelementptr inbounds nuw i8, ptr %4, i64 16
  store ptr %8, ptr %21, align 8, !tbaa !55
  %22 = getelementptr inbounds nuw i8, ptr %4, i64 24
  store ptr %19, ptr %22, align 8, !tbaa !56
  %23 = getelementptr inbounds nuw i8, ptr %4, i64 32
  store ptr null, ptr %23, align 8, !tbaa !57
  %24 = getelementptr inbounds nuw i8, ptr %4, i64 40
  store i32 -1, ptr %24, align 8, !tbaa !58
  %25 = getelementptr inbounds nuw i8, ptr %4, i64 44
  store i32 -1, ptr %25, align 4, !tbaa !59
  call void @llvm.lifetime.start.p0(i64 48, ptr nonnull %5) #11
  %26 = getelementptr inbounds nuw i8, ptr %11, i64 200
  %27 = load ptr, ptr %26, align 8, !tbaa !40
  %28 = getelementptr inbounds nuw i8, ptr %11, i64 8
  store ptr null, ptr %5, align 8, !tbaa !49
  %29 = getelementptr inbounds nuw i8, ptr %5, i64 8
  store ptr %27, ptr %29, align 8, !tbaa !54
  %30 = getelementptr inbounds nuw i8, ptr %5, i64 16
  store ptr %11, ptr %30, align 8, !tbaa !55
  %31 = getelementptr inbounds nuw i8, ptr %5, i64 24
  store ptr %28, ptr %31, align 8, !tbaa !56
  %32 = getelementptr inbounds nuw i8, ptr %5, i64 32
  store ptr null, ptr %32, align 8, !tbaa !57
  %33 = getelementptr inbounds nuw i8, ptr %5, i64 40
  store i32 -1, ptr %33, align 8, !tbaa !58
  %34 = getelementptr inbounds nuw i8, ptr %5, i64 44
  store i32 -1, ptr %34, align 4, !tbaa !59
  %35 = getelementptr inbounds nuw i8, ptr %0, i64 16
  %36 = load ptr, ptr %35, align 8, !tbaa !60
  %.not = icmp eq ptr %36, null
  br i1 %.not, label %37, label %.thread

37:                                               ; preds = %16
  %38 = load ptr, ptr %1, align 8, !tbaa !4
  %39 = getelementptr inbounds nuw i8, ptr %38, i64 16
  %40 = load ptr, ptr %39, align 8
  %41 = call noundef ptr %40(ptr noundef nonnull align 8 dereferenceable(20816) %1, ptr noundef nonnull %4, ptr noundef nonnull %5, ptr noundef null, i32 noundef 1)
  store ptr %41, ptr %35, align 8, !tbaa !60
  %.not29 = icmp eq ptr %41, null
  br i1 %.not29, label %59, label %.thread

.thread:                                          ; preds = %16, %37
  call void @llvm.lifetime.start.p0(i64 56, ptr nonnull %6) #11
  call void @_ZN16btManifoldResultC1EPK24btCollisionObjectWrapperS2_(ptr noundef nonnull align 8 dereferenceable(52) %6, ptr noundef nonnull %4, ptr noundef nonnull %5)
  %42 = getelementptr inbounds nuw i8, ptr %2, i64 8
  %43 = load i32, ptr %42, align 8, !tbaa !61
  %44 = icmp eq i32 %43, 1
  %45 = load ptr, ptr %35, align 8, !tbaa !60
  %46 = load ptr, ptr %45, align 8, !tbaa !4
  br i1 %44, label %47, label %50

47:                                               ; preds = %.thread
  %48 = getelementptr inbounds nuw i8, ptr %46, i64 16
  %49 = load ptr, ptr %48, align 8
  call void %49(ptr noundef nonnull align 8 dereferenceable(16) %45, ptr noundef nonnull %4, ptr noundef nonnull %5, ptr noundef nonnull align 8 dereferenceable(49) %2, ptr noundef nonnull %6)
  br label %58

50:                                               ; preds = %.thread
  %51 = getelementptr inbounds nuw i8, ptr %46, i64 24
  %52 = load ptr, ptr %51, align 8
  %53 = call noundef float %52(ptr noundef nonnull align 8 dereferenceable(16) %45, ptr noundef nonnull %8, ptr noundef nonnull %11, ptr noundef nonnull align 8 dereferenceable(49) %2, ptr noundef nonnull %6)
  %54 = getelementptr inbounds nuw i8, ptr %2, i64 12
  %55 = load float, ptr %54, align 4, !tbaa !64
  %56 = fcmp ogt float %55, %53
  br i1 %56, label %57, label %58

57:                                               ; preds = %50
  store float %53, ptr %54, align 4, !tbaa !64
  br label %58

58:                                               ; preds = %47, %50, %57
  call void @llvm.lifetime.end.p0(i64 56, ptr nonnull %6) #11
  br label %59

59:                                               ; preds = %58, %37
  call void @llvm.lifetime.end.p0(i64 48, ptr nonnull %5) #11
  call void @llvm.lifetime.end.p0(i64 48, ptr nonnull %4) #11
  br label %60

60:                                               ; preds = %59, %3
  ret void
}